((lp1
(dp2
S'y'
I0
sS'x'
F0.39386538461538489
sS'label'
p3
S'1'
sa(dp4
S'y'
I0
sS'x'
F0.55166346153846058
sg3
S'2'
sa(dp5
S'y'
I0
sS'x'
F0.64999999999999958
sg3
S'3'
sa(dp6
S'y'
I0
sS'x'
F0.82836538461538356
sg3
S'4'
sa(dp7
S'y'
F0.41313461538461549
sS'x'
I0
sg3
S'a'
sa(dp8
S'y'
F0.47244871794871801
sS'x'
I0
sg3
S'b'
sa(dp9
S'y'
F0.53176282051282009
sS'x'
I0
sg3
S'c'
sa(dp10
S'y'
F0.5910769230769235
sS'x'
I0
sg3
S'd'
sa(dp11
S'y'
F0.65039102564102491
sS'x'
I0
sg3
S'e'
sa(dp12
S'y'
F0.70970512820512854
sS'x'
I0
sg3
S'f'
sa(dp13
S'y'
F0.76901923076923118
sS'x'
I0
sg3
S'g'
saI104
t.